; Function Attrs: nounwind uwtable
define dso_local i32 @Curl_resolv_check(ptr noundef %0, ptr noundef %1) local_unnamed_addr #0 {
  %3 = getelementptr inbounds nuw i8, ptr %0, i64 32
  %4 = load ptr, ptr %3, align 8
  %5 = getelementptr inbounds nuw i8, ptr %4, i64 672
  %6 = load i32, ptr %5, align 8
  %7 = and i32 %6, 67108864
  %.not = icmp eq i32 %7, 0
  br i1 %.not, label %10, label %8

8:                                                ; preds = %2
  %9 = tail call i32 @Curl_doh_is_resolved(ptr noundef nonnull %0, ptr noundef %1) #12
  br label %10

10:                                               ; preds = %2, %8
  %.0 = phi i32 [ %9, %8 ], [ 6, %2 ]
  %11 = load ptr, ptr %1, align 8
  %.not7 = icmp eq ptr %11, null
  br i1 %.not7, label %13, label %12

12:                                               ; preds = %10
  tail call fastcc void @show_resolve_info(ptr noundef nonnull %0, ptr noundef %11)
  br label %13

13:                                               ; preds = %12, %10
  ret i32 %.0
}